; Function Attrs: mustprogress nounwind uwtable
define internal fastcc void @_ZN4absl18debugging_internal12_GLOBAL__N_114FileDescriptorD2Ev(i32 %.0.val) unnamed_addr #17 align 2 personality ptr @__gxx_personality_v0 {
  %1 = icmp sgt i32 %.0.val, -1
  br i1 %1, label %2, label %4

2:                                                ; preds = %0
  %3 = invoke i32 @close(i32 noundef %.0.val)
          to label %4 unwind label %5

4:                                                ; preds = %2, %0
  ret void

5:                                                ; preds = %2
  %6 = landingpad { ptr, i32 }
          catch ptr null
  %7 = extractvalue { ptr, i32 } %6, 0
  tail call void @__clang_call_terminate(ptr %7) #29
  unreachable
}